target datalayout = "e-m:e-p270:32:32-p271:32:32-p272:64:64-i64:64-i128:128-f80:128-n8:16:32:64-S128"
target triple = "x86_64-pc-linux-gnu"

%"struct.tbb::detail::d1::intrusive_list_node" = type { ptr, ptr }
%"struct.std::atomic.4" = type { %"struct.std::__atomic_base.5" }
%"struct.std::__atomic_base.5" = type { i32 }
%"struct.tbb::detail::r1::arena_base" = type { %"struct.tbb::detail::d0::padded.11", %"struct.std::atomic.4", %"struct.std::atomic.4", %"struct.std::atomic.4", [4 x i8], %"class.tbb::detail::r1::task_stream", %"class.tbb::detail::r1::task_stream", %"class.tbb::detail::r1::task_stream.15", i32, i32, %"struct.std::atomic", %"class.tbb::detail::r1::atomic_flag", %"class.tbb::detail::r1::observer_list", ptr, ptr, ptr, %"class.tbb::detail::r1::concurrent_monitor", %"class.tbb::detail::r1::arena_co_cache", %"class.tbb::detail::r1::atomic_flag", i32, i32, i32, i32, %"class.tbb::detail::r1::threading_control_client" }
%"struct.tbb::detail::d0::padded.11" = type { %"struct.tbb::detail::d0::padded_base.12" }
%"struct.tbb::detail::d0::padded_base.12" = type { %"struct.tbb::detail::d1::intrusive_list_node", [112 x i8] }
%"class.tbb::detail::r1::task_stream" = type <{ %"struct.std::atomic.13", ptr, i32, [4 x i8] }>
%"struct.std::atomic.13" = type { %"struct.std::__atomic_base.14" }
%"struct.std::__atomic_base.14" = type { i64 }
%"class.tbb::detail::r1::task_stream.15" = type <{ %"struct.std::atomic.13", ptr, i32, [4 x i8] }>
%"struct.std::atomic" = type { %"struct.std::__atomic_base" }
%"struct.std::__atomic_base" = type { i8 }
%"class.tbb::detail::r1::observer_list" = type { %"struct.std::atomic.18", %"struct.std::atomic.18", %"class.tbb::detail::d0::aligned_space", ptr }
%"struct.std::atomic.18" = type { %"struct.std::__atomic_base.19" }
%"struct.std::__atomic_base.19" = type { ptr }
%"class.tbb::detail::d0::aligned_space" = type { [8 x i8] }
%"class.tbb::detail::r1::concurrent_monitor" = type { %"class.tbb::detail::r1::concurrent_monitor_base.base", [4 x i8] }
%"class.tbb::detail::r1::concurrent_monitor_base.base" = type <{ %"class.tbb::detail::r1::concurrent_monitor_mutex", %"class.tbb::detail::r1::circular_doubly_linked_list_with_sentinel", %"struct.std::atomic.4" }>
%"class.tbb::detail::r1::concurrent_monitor_mutex" = type { %"struct.std::atomic.0", %"struct.std::atomic.0" }
%"struct.std::atomic.0" = type { %"struct.std::__atomic_base.1" }
%"struct.std::__atomic_base.1" = type { i32 }
%"class.tbb::detail::r1::circular_doubly_linked_list_with_sentinel" = type { %"struct.std::atomic.13", %"struct.tbb::detail::r1::circular_doubly_linked_list_with_sentinel::base_node" }
%"struct.tbb::detail::r1::circular_doubly_linked_list_with_sentinel::base_node" = type { ptr, ptr }
%"class.tbb::detail::r1::arena_co_cache" = type <{ ptr, i32, i32, %"class.tbb::detail::d1::spin_mutex", [7 x i8] }>
%"class.tbb::detail::d1::spin_mutex" = type { %"struct.std::atomic" }
%"class.tbb::detail::r1::atomic_flag" = type { %"struct.std::atomic.13" }
%"class.tbb::detail::r1::threading_control_client" = type { ptr, ptr }
%"struct.std::pair" = type { i32, i32 }

; Function Attrs: mustprogress nounwind sspstrong uwtable
define linkonce_odr void @_ZNSt4pairIiiEC2IRiS2_TnNSt9enable_ifIXaaclsr5_PCCPE22_MoveConstructiblePairIT_T0_EEclsr5_PCCPE30_ImplicitlyMoveConvertiblePairIS4_S5_EEEbE4typeELb1EEEOS4_OS5_(ptr noundef nonnull align 4 dereferenceable(8) %0, ptr noundef nonnull align 4 dereferenceable(4) %1, ptr noundef nonnull align 4 dereferenceable(4) %2) unnamed_addr #1 comdat align 2 {
  %4 = alloca ptr, align 8
  %5 = alloca ptr, align 8
  %6 = alloca ptr, align 8
  store ptr %0, ptr %4, align 8, !tbaa !221
  store ptr %1, ptr %5, align 8, !tbaa !223
  store ptr %2, ptr %6, align 8, !tbaa !223
  %7 = load ptr, ptr %4, align 8
  %8 = getelementptr inbounds nuw %"struct.std::pair", ptr %7, i32 0, i32 0
  %9 = load ptr, ptr %5, align 8, !tbaa !223
  %10 = load i32, ptr %9, align 4, !tbaa !79
  store i32 %10, ptr %8, align 4, !tbaa !225
  %11 = getelementptr inbounds nuw %"struct.std::pair", ptr %7, i32 0, i32 1
  %12 = load ptr, ptr %6, align 8, !tbaa !223
  %13 = load i32, ptr %12, align 4, !tbaa !79
  store i32 %13, ptr %11, align 4, !tbaa !227
  ret void
}

; Function Attrs: mustprogress nounwind sspstrong uwtable
define linkonce_odr noundef i32 @_ZN3tbb6detail2d05clampIiEET_S3_S3_S3_(i32 noundef %0, i32 noundef %1, i32 noundef %2) #1 comdat {
  %4 = alloca i32, align 4
  %5 = alloca i32, align 4
  %6 = alloca i32, align 4
  store i32 %0, ptr %4, align 4, !tbaa !79
  store i32 %1, ptr %5, align 4, !tbaa !79
  store i32 %2, ptr %6, align 4, !tbaa !79
  %7 = load i32, ptr %4, align 4, !tbaa !79
  %8 = load i32, ptr %5, align 4, !tbaa !79
  %9 = icmp sgt i32 %7, %8
  br i1 %9, label %10, label %20

10:                                               ; preds = %3
  %11 = load i32, ptr %4, align 4, !tbaa !79
  %12 = load i32, ptr %6, align 4, !tbaa !79
  %13 = icmp sgt i32 %11, %12
  br i1 %13, label %14, label %16

14:                                               ; preds = %10
  %15 = load i32, ptr %6, align 4, !tbaa !79
  br label %18

16:                                               ; preds = %10
  %17 = load i32, ptr %4, align 4, !tbaa !79
  br label %18

18:                                               ; preds = %16, %14
  %19 = phi i32 [ %15, %14 ], [ %17, %16 ]
  br label %22

20:                                               ; preds = %3
  %21 = load i32, ptr %5, align 4, !tbaa !79
  br label %22

22:                                               ; preds = %20, %18
  %23 = phi i32 [ %19, %18 ], [ %21, %20 ]
  ret i32 %23
}

; Function Attrs: mustprogress nounwind sspstrong uwtable
define linkonce_odr noundef zeroext i1 @_ZNK3tbb6detail2r15arena19is_arena_workerlessEv(ptr noundef nonnull align 128 dereferenceable(768) %0) #1 comdat align 2 {
  %2 = alloca ptr, align 8
  store ptr %0, ptr %2, align 8, !tbaa !43
  %3 = load ptr, ptr %2, align 8
  %4 = getelementptr inbounds nuw %"struct.tbb::detail::r1::arena_base", ptr %3, i32 0, i32 22
  %5 = load i32, ptr %4, align 4, !tbaa !108
  %6 = icmp eq i32 %5, 0
  ret i1 %6
}

; Function Attrs: mustprogress sspstrong uwtable
define i64 @_ZN3tbb6detail2r15arena14update_requestEii(ptr noundef nonnull align 128 dereferenceable(768) %0, i32 noundef %1, i32 noundef %2) #2 align 2 {
  %4 = alloca %"struct.std::pair", align 4
  %5 = alloca ptr, align 8
  %6 = alloca i32, align 4
  %7 = alloca i32, align 4
  %8 = alloca i32, align 4
  %9 = alloca i32, align 4
  store ptr %0, ptr %5, align 8, !tbaa !43
  store i32 %1, ptr %6, align 4, !tbaa !79
  store i32 %2, ptr %7, align 4, !tbaa !79
  %10 = load ptr, ptr %5, align 8
  call void @llvm.lifetime.start.p0(i64 4, ptr %8) #12
  store i32 0, ptr %8, align 4, !tbaa !79
  call void @llvm.lifetime.start.p0(i64 4, ptr %9) #12
  store i32 0, ptr %9, align 4, !tbaa !79
  %11 = load i32, ptr %6, align 4, !tbaa !79
  %12 = getelementptr inbounds nuw %"struct.tbb::detail::r1::arena_base", ptr %10, i32 0, i32 19
  %13 = load i32, ptr %12, align 16, !tbaa !151
  %14 = add nsw i32 %13, %11
  store i32 %14, ptr %12, align 16, !tbaa !151
  %15 = getelementptr inbounds nuw %"struct.tbb::detail::r1::arena_base", ptr %10, i32 0, i32 19
  %16 = load i32, ptr %15, align 16, !tbaa !151
  %17 = icmp sgt i32 %16, 0
  %18 = select i1 %17, i32 1, i32 0
  store i32 %18, ptr %8, align 4, !tbaa !79
  %19 = load i32, ptr %7, align 4, !tbaa !79
  %20 = getelementptr inbounds nuw %"struct.tbb::detail::r1::arena_base", ptr %10, i32 0, i32 8
  %21 = load i32, ptr %20, align 8, !tbaa !220
  %22 = add nsw i32 %21, %19
  store i32 %22, ptr %20, align 8, !tbaa !220
  %23 = getelementptr inbounds nuw %"struct.tbb::detail::r1::arena_base", ptr %10, i32 0, i32 8
  %24 = load i32, ptr %23, align 8, !tbaa !220
  %25 = load i32, ptr %8, align 4, !tbaa !79
  %26 = icmp sgt i32 %25, 0
  br i1 %26, label %27, label %30

27:                                               ; preds = %3
  %28 = call noundef zeroext i1 @_ZNK3tbb6detail2r15arena19is_arena_workerlessEv(ptr noundef nonnull align 128 dereferenceable(768) %10)
  br i1 %28, label %29, label %30

29:                                               ; preds = %27
  br label %33

30:                                               ; preds = %27, %3
  %31 = getelementptr inbounds nuw %"struct.tbb::detail::r1::arena_base", ptr %10, i32 0, i32 22
  %32 = load i32, ptr %31, align 4, !tbaa !108
  br label %33

33:                                               ; preds = %30, %29
  %34 = phi i32 [ 1, %29 ], [ %32, %30 ]
  %35 = call noundef i32 @_ZN3tbb6detail2d05clampIiEET_S3_S3_S3_(i32 noundef %24, i32 noundef 0, i32 noundef %34)
  store i32 %35, ptr %9, align 4, !tbaa !79
  call void @_ZNSt4pairIiiEC2IRiS2_TnNSt9enable_ifIXaaclsr5_PCCPE22_MoveConstructiblePairIT_T0_EEclsr5_PCCPE30_ImplicitlyMoveConvertiblePairIS4_S5_EEEbE4typeELb1EEEOS4_OS5_(ptr noundef nonnull align 4 dereferenceable(8) %4, ptr noundef nonnull align 4 dereferenceable(4) %8, ptr noundef nonnull align 4 dereferenceable(4) %9)
  call void @llvm.lifetime.end.p0(i64 4, ptr %9) #12
  call void @llvm.lifetime.end.p0(i64 4, ptr %8) #12
  %36 = load i64, ptr %4, align 4
  ret i64 %36
}