; Function Attrs: mustprogress nofree norecurse nosync nounwind sspstrong willreturn memory(argmem: readwrite) uwtable
define range(i64 0, -4294967294) i64 @_ZN3tbb6detail2r15arena14update_requestEii(ptr noundef nonnull align 128 captures(none) dereferenceable(768) %0, i32 noundef %1, i32 noundef %2) local_unnamed_addr #8 align 2 {
  %4 = getelementptr inbounds nuw i8, ptr %0, i64 368
  %5 = load i32, ptr %4, align 16, !tbaa !175
  %6 = add nsw i32 %5, %1
  store i32 %6, ptr %4, align 16, !tbaa !175
  %7 = icmp sgt i32 %6, 0
  %8 = getelementptr inbounds nuw i8, ptr %0, i64 216
  %9 = load i32, ptr %8, align 8, !tbaa !190
  %10 = add nsw i32 %9, %2
  store i32 %10, ptr %8, align 8, !tbaa !190
  %11 = getelementptr inbounds nuw i8, ptr %0, i64 380
  %12 = load i32, ptr %11, align 4
  %13 = icmp eq i32 %12, 0
  %or.cond = select i1 %7, i1 %13, i1 false
  %14 = select i1 %or.cond, i32 1, i32 %12
  %15 = icmp sgt i32 %10, 0
  %16 = tail call i32 @llvm.smin.i32(i32 %10, i32 %14)
  %17 = select i1 %15, i32 %16, i32 0
  %.sroa.2.0.insert.ext = zext i32 %17 to i64
  %.sroa.2.0.insert.shift = shl nuw i64 %.sroa.2.0.insert.ext, 32
  %.sroa.0.0.insert.ext = zext i1 %7 to i64
  %.sroa.0.0.insert.insert = or disjoint i64 %.sroa.2.0.insert.shift, %.sroa.0.0.insert.ext
  ret i64 %.sroa.0.0.insert.insert
}